(dp1
S'caldav'
p2
ccopy_reg
_reconstructor
p3
(ctwisted.plugin
CachedDropin
p4
c__builtin__
object
p5
NtRp6
(dp7
S'moduleName'
p8
S'twisted.plugins.caldav'
p9
sS'description'
p10
NsS'plugins'
p11
(lp12
g3
(ctwisted.plugin
CachedPlugin
p13
g5
NtRp14
(dp15
S'provided'
p16
(lp17
ctwisted.plugin
IPlugin
p18
actwisted.application.service
IServiceMaker
p19
asS'dropin'
p20
g6
sS'name'
p21
S'CalDAVNotifier'
p22
sg10
Nsbag3
(g13
g5
NtRp23
(dp24
g16
(lp25
g18
ag19
asg20
g6
sg21
S'TwistedCalDAV'
p26
sg10
NsbasbsS'kqueuereactor'
p27
g3
(g4
g5
NtRp28
(dp29
g8
S'twisted.plugins.kqueuereactor'
p30
sg10
Nsg11
(lp31
g3
(g13
g5
NtRp32
(dp33
g16
(lp34
g18
actwisted.application.reactors
IReactorInstaller
p35
asg20
g28
sg21
S'caldav_kqueue'
p36
sg10
S'\n    @ivar moduleName: The fully-qualified Python name of the module of which\n    the install callable is an attribute.\n    '
p37
sbasbs.